; Function Attrs: nounwind uwtable
define ptr @l_Lean_Elab_Tactic_BVDecide_Frontend_Normalize_enumsPass___elambda__1___lambda__2(ptr noundef readonly captures(none) %0, ptr noundef %1, ptr noundef %2, ptr noundef %3, ptr noundef %4, ptr noundef %5, ptr readnone captures(none) %6, ptr readnone captures(none) %7, ptr readnone captures(none) %8, ptr noundef %9, ptr noundef %10, ptr noundef %11, ptr noundef %12, ptr noundef %13) local_unnamed_addr #1 {
  %15 = getelementptr inbounds nuw i8, ptr %0, i64 30
  %16 = load i8, ptr %15, align 1, !tbaa !21
  %17 = icmp eq i8 %16, 0
  br i1 %17, label %18, label %20

18:                                               ; preds = %14
  %19 = tail call ptr @l_Lean_Elab_Tactic_BVDecide_Frontend_Normalize_enumsPass___elambda__1___lambda__1(ptr noundef nonnull %0, ptr noundef %5, ptr noundef %1, ptr noundef %2, ptr noundef %3, ptr noundef %4, ptr nonnull poison, ptr poison, ptr poison, ptr noundef %9, ptr noundef %10, ptr noundef %11, ptr noundef %12, ptr noundef %13)
  br label %54

20:                                               ; preds = %14
  %21 = load ptr, ptr @l_Lean_Elab_Tactic_BVDecide_Frontend_Normalize_enumsPass___elambda__1___lambda__2___closed__1, align 8, !tbaa !11
  %22 = tail call ptr @l_Lean_Meta_SimpExtension_getTheorems(ptr noundef %21, ptr noundef %11, ptr noundef %12, ptr noundef %13) #7
  %23 = getelementptr inbounds nuw i8, ptr %22, i64 8
  %24 = load ptr, ptr %23, align 8, !tbaa !11
  %25 = ptrtoint ptr %24 to i64
  %26 = and i64 %25, 1
  %.not = icmp eq i64 %26, 0
  br i1 %.not, label %27, label %lean_inc.exit43

27:                                               ; preds = %20
  %.val.i = load i32, ptr %24, align 4, !tbaa !4
  %28 = icmp sgt i32 %.val.i, 0
  br i1 %28, label %29, label %31, !prof !13

29:                                               ; preds = %27
  %30 = add nuw i32 %.val.i, 1
  store i32 %30, ptr %24, align 4, !tbaa !4
  br label %lean_inc.exit43

31:                                               ; preds = %27
  %.not.i44 = icmp eq i32 %.val.i, 0
  br i1 %.not.i44, label %lean_inc.exit43, label %32

32:                                               ; preds = %31
  tail call void @lean_inc_ref_cold(ptr noundef nonnull %24) #7
  br label %lean_inc.exit43

lean_inc.exit43:                                  ; preds = %32, %31, %29, %20
  %33 = getelementptr inbounds nuw i8, ptr %22, i64 16
  %34 = load ptr, ptr %33, align 8, !tbaa !11
  %35 = ptrtoint ptr %34 to i64
  %36 = and i64 %35, 1
  %.not48 = icmp eq i64 %36, 0
  br i1 %.not48, label %37, label %lean_inc.exit

37:                                               ; preds = %lean_inc.exit43
  %.val.i45 = load i32, ptr %34, align 4, !tbaa !4
  %38 = icmp sgt i32 %.val.i45, 0
  br i1 %38, label %39, label %41, !prof !13

39:                                               ; preds = %37
  %40 = add nuw i32 %.val.i45, 1
  store i32 %40, ptr %34, align 4, !tbaa !4
  br label %lean_inc.exit

41:                                               ; preds = %37
  %.not.i46 = icmp eq i32 %.val.i45, 0
  br i1 %.not.i46, label %lean_inc.exit, label %42

42:                                               ; preds = %41
  tail call void @lean_inc_ref_cold(ptr noundef nonnull %34) #7
  br label %lean_inc.exit

lean_inc.exit:                                    ; preds = %42, %41, %39, %lean_inc.exit43
  %43 = ptrtoint ptr %22 to i64
  %44 = and i64 %43, 1
  %.not49 = icmp eq i64 %44, 0
  br i1 %.not49, label %45, label %lean_dec.exit

45:                                               ; preds = %lean_inc.exit
  %46 = load i32, ptr %22, align 4, !tbaa !4
  %47 = icmp sgt i32 %46, 1
  br i1 %47, label %48, label %50, !prof !13

48:                                               ; preds = %45
  %49 = add nsw i32 %46, -1
  store i32 %49, ptr %22, align 4, !tbaa !4
  br label %lean_dec.exit

50:                                               ; preds = %45
  %.not.i = icmp eq i32 %46, 0
  br i1 %.not.i, label %lean_dec.exit, label %51

51:                                               ; preds = %50
  tail call void @lean_dec_ref_cold(ptr noundef nonnull %22) #7
  br label %lean_dec.exit

lean_dec.exit:                                    ; preds = %51, %50, %48, %lean_inc.exit
  %52 = tail call ptr @lean_array_push(ptr noundef %4, ptr noundef %24) #7
  %53 = tail call ptr @l_Lean_Elab_Tactic_BVDecide_Frontend_Normalize_enumsPass___elambda__1___lambda__1(ptr noundef nonnull %0, ptr noundef %5, ptr noundef %1, ptr noundef %2, ptr noundef %3, ptr noundef %52, ptr nonnull poison, ptr poison, ptr poison, ptr noundef %9, ptr noundef %10, ptr noundef %11, ptr noundef %12, ptr noundef %34)
  br label %54

54:                                               ; preds = %lean_dec.exit, %18
  %.0 = phi ptr [ %19, %18 ], [ %53, %lean_dec.exit ]
  ret ptr %.0
}